target datalayout = "e-m:e-p270:32:32-p271:32:32-p272:64:64-i64:64-i128:128-f80:128-n8:16:32:64-S128"
target triple = "x86_64-pc-linux-gnu"

@.str.3 = private unnamed_addr constant [29 x i8] c"../openssl/test/aesgcmtest.c\00", align 1
@gcm_iv = internal constant [12 x i8] c"\99\AA>h\ED\81s\A0\EE\D0f\84", align 1
@.str.8 = private unnamed_addr constant [27 x i8] c"ctx = EVP_CIPHER_CTX_new()\00", align 1
@.str.9 = private unnamed_addr constant [65 x i8] c"EVP_EncryptInit_ex(ctx, EVP_aes_256_gcm(), NULL, NULL, NULL) > 0\00", align 1
@.str.10 = private unnamed_addr constant [81 x i8] c"EVP_EncryptInit_ex(ctx, NULL, NULL, gcm_key, iv_gen != NULL ? NULL : gcm_iv) > 0\00", align 1
@gcm_key = internal constant [32 x i8] c"\EE\BC\1FWH\7FQ\92\1C\04ef_\8A\E6\D1e\8B\B2m\E6\F8\A0i\A3R\02\93\A5r\07\8F", align 16
@.str.11 = private unnamed_addr constant [68 x i8] c"EVP_EncryptUpdate(ctx, NULL, &outlen, gcm_aad, sizeof(gcm_aad)) > 0\00", align 1
@gcm_aad = internal constant [16 x i8] c"M#\C3\CE\C34\B4\9B\DB7\0CC\7F\ECx\DE", align 16
@.str.12 = private unnamed_addr constant [63 x i8] c"EVP_EncryptUpdate(ctx, ct, ct_len, gcm_pt, sizeof(gcm_pt)) > 0\00", align 1
@gcm_pt = internal constant [16 x i8] c"\F5n\87\05[\C3-\0E\EB1\B2\EA\CC+\F2\A5", align 16
@.str.13 = private unnamed_addr constant [46 x i8] c"EVP_EncryptFinal_ex(ctx, outbuf, &outlen) > 0\00", align 1
@.str.14 = private unnamed_addr constant [35 x i8] c"EVP_CIPHER_CTX_get_tag_length(ctx)\00", align 1
@.str.15 = private unnamed_addr constant [3 x i8] c"16\00", align 1
@.str.16 = private unnamed_addr constant [61 x i8] c"EVP_CIPHER_CTX_ctrl(ctx, EVP_CTRL_AEAD_GET_TAG, 16, tag) > 0\00", align 1
@.str.17 = private unnamed_addr constant [66 x i8] c"iv_gen == NULL || EVP_CIPHER_CTX_get_original_iv(ctx, iv_gen, 12)\00", align 1

; Function Attrs: nounwind uwtable
define internal i32 @do_encrypt(ptr noundef %0, ptr noundef %1, ptr noundef %2, ptr noundef %3, ptr noundef %4) #0 {
  %6 = alloca ptr, align 8
  %7 = alloca ptr, align 8
  %8 = alloca ptr, align 8
  %9 = alloca ptr, align 8
  %10 = alloca ptr, align 8
  %11 = alloca i32, align 4
  %12 = alloca ptr, align 8
  %13 = alloca i32, align 4
  %14 = alloca [64 x i8], align 16
  store ptr %0, ptr %6, align 8, !tbaa !13
  store ptr %1, ptr %7, align 8, !tbaa !13
  store ptr %2, ptr %8, align 8, !tbaa !15
  store ptr %3, ptr %9, align 8, !tbaa !13
  store ptr %4, ptr %10, align 8, !tbaa !15
  call void @llvm.lifetime.start.p0(i64 4, ptr %11) #3
  store i32 0, ptr %11, align 4, !tbaa !4
  call void @llvm.lifetime.start.p0(i64 8, ptr %12) #3
  store ptr null, ptr %12, align 8, !tbaa !8
  call void @llvm.lifetime.start.p0(i64 4, ptr %13) #3
  call void @llvm.lifetime.start.p0(i64 64, ptr %14) #3
  %15 = load ptr, ptr %10, align 8, !tbaa !15
  store i32 16, ptr %15, align 4, !tbaa !4
  %16 = call ptr @EVP_CIPHER_CTX_new()
  store ptr %16, ptr %12, align 8, !tbaa !8
  %17 = call i32 @test_ptr(ptr noundef @.str.3, i32 noundef 47, ptr noundef @.str.8, ptr noundef %16)
  %18 = icmp ne i32 %17, 0
  br i1 %18, label %19, label %101

19:                                               ; preds = %5
  %20 = load ptr, ptr %12, align 8, !tbaa !8
  %21 = call ptr @EVP_aes_256_gcm()
  %22 = call i32 @EVP_EncryptInit_ex(ptr noundef %20, ptr noundef %21, ptr noundef null, ptr noundef null, ptr noundef null)
  %23 = icmp sgt i32 %22, 0
  %24 = zext i1 %23 to i32
  %25 = icmp ne i32 %24, 0
  %26 = zext i1 %25 to i32
  %27 = call i32 @test_true(ptr noundef @.str.3, i32 noundef 49, ptr noundef @.str.9, i32 noundef %26)
  %28 = icmp ne i32 %27, 0
  br i1 %28, label %29, label %101

29:                                               ; preds = %19
  %30 = load ptr, ptr %12, align 8, !tbaa !8
  %31 = load ptr, ptr %6, align 8, !tbaa !13
  %32 = icmp ne ptr %31, null
  %33 = select i1 %32, ptr null, ptr @gcm_iv
  %34 = call i32 @EVP_EncryptInit_ex(ptr noundef %30, ptr noundef null, ptr noundef null, ptr noundef @gcm_key, ptr noundef %33)
  %35 = icmp sgt i32 %34, 0
  %36 = zext i1 %35 to i32
  %37 = icmp ne i32 %36, 0
  %38 = zext i1 %37 to i32
  %39 = call i32 @test_true(ptr noundef @.str.3, i32 noundef 51, ptr noundef @.str.10, i32 noundef %38)
  %40 = icmp ne i32 %39, 0
  br i1 %40, label %41, label %101

41:                                               ; preds = %29
  %42 = load ptr, ptr %12, align 8, !tbaa !8
  %43 = call i32 @EVP_EncryptUpdate(ptr noundef %42, ptr noundef null, ptr noundef %13, ptr noundef @gcm_aad, i32 noundef 16)
  %44 = icmp sgt i32 %43, 0
  %45 = zext i1 %44 to i32
  %46 = icmp ne i32 %45, 0
  %47 = zext i1 %46 to i32
  %48 = call i32 @test_true(ptr noundef @.str.3, i32 noundef 53, ptr noundef @.str.11, i32 noundef %47)
  %49 = icmp ne i32 %48, 0
  br i1 %49, label %50, label %101

50:                                               ; preds = %41
  %51 = load ptr, ptr %12, align 8, !tbaa !8
  %52 = load ptr, ptr %7, align 8, !tbaa !13
  %53 = load ptr, ptr %8, align 8, !tbaa !15
  %54 = call i32 @EVP_EncryptUpdate(ptr noundef %51, ptr noundef %52, ptr noundef %53, ptr noundef @gcm_pt, i32 noundef 16)
  %55 = icmp sgt i32 %54, 0
  %56 = zext i1 %55 to i32
  %57 = icmp ne i32 %56, 0
  %58 = zext i1 %57 to i32
  %59 = call i32 @test_true(ptr noundef @.str.3, i32 noundef 55, ptr noundef @.str.12, i32 noundef %58)
  %60 = icmp ne i32 %59, 0
  br i1 %60, label %61, label %101

61:                                               ; preds = %50
  %62 = load ptr, ptr %12, align 8, !tbaa !8
  %63 = getelementptr inbounds [64 x i8], ptr %14, i64 0, i64 0
  %64 = call i32 @EVP_EncryptFinal_ex(ptr noundef %62, ptr noundef %63, ptr noundef %13)
  %65 = icmp sgt i32 %64, 0
  %66 = zext i1 %65 to i32
  %67 = icmp ne i32 %66, 0
  %68 = zext i1 %67 to i32
  %69 = call i32 @test_true(ptr noundef @.str.3, i32 noundef 56, ptr noundef @.str.13, i32 noundef %68)
  %70 = icmp ne i32 %69, 0
  br i1 %70, label %71, label %101

71:                                               ; preds = %61
  %72 = load ptr, ptr %12, align 8, !tbaa !8
  %73 = call i32 @EVP_CIPHER_CTX_get_tag_length(ptr noundef %72)
  %74 = call i32 @test_int_eq(ptr noundef @.str.3, i32 noundef 57, ptr noundef @.str.14, ptr noundef @.str.15, i32 noundef %73, i32 noundef 16)
  %75 = icmp ne i32 %74, 0
  br i1 %75, label %76, label %101

76:                                               ; preds = %71
  %77 = load ptr, ptr %12, align 8, !tbaa !8
  %78 = load ptr, ptr %9, align 8, !tbaa !13
  %79 = call i32 @EVP_CIPHER_CTX_ctrl(ptr noundef %77, i32 noundef 16, i32 noundef 16, ptr noundef %78)
  %80 = icmp sgt i32 %79, 0
  %81 = zext i1 %80 to i32
  %82 = icmp ne i32 %81, 0
  %83 = zext i1 %82 to i32
  %84 = call i32 @test_true(ptr noundef @.str.3, i32 noundef 59, ptr noundef @.str.16, i32 noundef %83)
  %85 = icmp ne i32 %84, 0
  br i1 %85, label %86, label %101

86:                                               ; preds = %76
  %87 = load ptr, ptr %6, align 8, !tbaa !13
  %88 = icmp eq ptr %87, null
  br i1 %88, label %94, label %89

89:                                               ; preds = %86
  %90 = load ptr, ptr %12, align 8, !tbaa !8
  %91 = load ptr, ptr %6, align 8, !tbaa !13
  %92 = call i32 @EVP_CIPHER_CTX_get_original_iv(ptr noundef %90, ptr noundef %91, i64 noundef 12)
  %93 = icmp ne i32 %92, 0
  br label %94

94:                                               ; preds = %89, %86
  %95 = phi i1 [ true, %86 ], [ %93, %89 ]
  %96 = zext i1 %95 to i32
  %97 = icmp ne i32 %96, 0
  %98 = zext i1 %97 to i32
  %99 = call i32 @test_true(ptr noundef @.str.3, i32 noundef 61, ptr noundef @.str.17, i32 noundef %98)
  %100 = icmp ne i32 %99, 0
  br label %101

101:                                              ; preds = %94, %76, %71, %61, %50, %41, %29, %19, %5
  %102 = phi i1 [ false, %76 ], [ false, %71 ], [ false, %61 ], [ false, %50 ], [ false, %41 ], [ false, %29 ], [ false, %19 ], [ false, %5 ], [ %100, %94 ]
  %103 = zext i1 %102 to i32
  store i32 %103, ptr %11, align 4, !tbaa !4
  %104 = load ptr, ptr %12, align 8, !tbaa !8
  call void @EVP_CIPHER_CTX_free(ptr noundef %104)
  %105 = load i32, ptr %11, align 4, !tbaa !4
  call void @llvm.lifetime.end.p0(i64 64, ptr %14) #3
  call void @llvm.lifetime.end.p0(i64 4, ptr %13) #3
  call void @llvm.lifetime.end.p0(i64 8, ptr %12) #3
  call void @llvm.lifetime.end.p0(i64 4, ptr %11) #3
  ret i32 %105
}