; Function Attrs: nounwind uwtable
define internal fastcc range(i32 0, 2) i32 @do_encrypt(ptr noundef %0, ptr noundef nonnull %1, ptr noundef nonnull %2, ptr noundef nonnull %3, ptr noundef nonnull writeonly captures(none) initializes((0, 4)) %4) unnamed_addr #0 {
  %6 = alloca i32, align 4
  %7 = alloca [64 x i8], align 16
  call void @llvm.lifetime.start.p0(i64 4, ptr nonnull %6) #3
  call void @llvm.lifetime.start.p0(i64 64, ptr nonnull %7) #3
  store i32 16, ptr %4, align 4, !tbaa !4
  %8 = tail call ptr @EVP_CIPHER_CTX_new() #3
  %9 = tail call i32 @test_ptr(ptr noundef nonnull @.str.3, i32 noundef 47, ptr noundef nonnull @.str.8, ptr noundef %8) #3
  %.not = icmp eq i32 %9, 0
  br i1 %.not, label %55, label %10

10:                                               ; preds = %5
  %11 = tail call ptr @EVP_aes_256_gcm() #3
  %12 = tail call i32 @EVP_EncryptInit_ex(ptr noundef %8, ptr noundef %11, ptr noundef null, ptr noundef null, ptr noundef null) #3
  %13 = icmp sgt i32 %12, 0
  %14 = zext i1 %13 to i32
  %15 = tail call i32 @test_true(ptr noundef nonnull @.str.3, i32 noundef 49, ptr noundef nonnull @.str.9, i32 noundef %14) #3
  %.not16 = icmp eq i32 %15, 0
  br i1 %.not16, label %55, label %16

16:                                               ; preds = %10
  %.not17 = icmp eq ptr %0, null
  %17 = select i1 %.not17, ptr @gcm_iv, ptr null
  %18 = tail call i32 @EVP_EncryptInit_ex(ptr noundef %8, ptr noundef null, ptr noundef null, ptr noundef nonnull @gcm_key, ptr noundef %17) #3
  %19 = icmp sgt i32 %18, 0
  %20 = zext i1 %19 to i32
  %21 = tail call i32 @test_true(ptr noundef nonnull @.str.3, i32 noundef 51, ptr noundef nonnull @.str.10, i32 noundef %20) #3
  %.not18 = icmp eq i32 %21, 0
  br i1 %.not18, label %55, label %22

22:                                               ; preds = %16
  %23 = call i32 @EVP_EncryptUpdate(ptr noundef %8, ptr noundef null, ptr noundef nonnull %6, ptr noundef nonnull @gcm_aad, i32 noundef 16) #3
  %24 = icmp sgt i32 %23, 0
  %25 = zext i1 %24 to i32
  %26 = call i32 @test_true(ptr noundef nonnull @.str.3, i32 noundef 53, ptr noundef nonnull @.str.11, i32 noundef %25) #3
  %.not19 = icmp eq i32 %26, 0
  br i1 %.not19, label %55, label %27

27:                                               ; preds = %22
  %28 = call i32 @EVP_EncryptUpdate(ptr noundef %8, ptr noundef nonnull %1, ptr noundef nonnull %2, ptr noundef nonnull @gcm_pt, i32 noundef 16) #3
  %29 = icmp sgt i32 %28, 0
  %30 = zext i1 %29 to i32
  %31 = call i32 @test_true(ptr noundef nonnull @.str.3, i32 noundef 55, ptr noundef nonnull @.str.12, i32 noundef %30) #3
  %.not20 = icmp eq i32 %31, 0
  br i1 %.not20, label %55, label %32

32:                                               ; preds = %27
  %33 = call i32 @EVP_EncryptFinal_ex(ptr noundef %8, ptr noundef nonnull %7, ptr noundef nonnull %6) #3
  %34 = icmp sgt i32 %33, 0
  %35 = zext i1 %34 to i32
  %36 = call i32 @test_true(ptr noundef nonnull @.str.3, i32 noundef 56, ptr noundef nonnull @.str.13, i32 noundef %35) #3
  %.not21 = icmp eq i32 %36, 0
  br i1 %.not21, label %55, label %37

37:                                               ; preds = %32
  %38 = call i32 @EVP_CIPHER_CTX_get_tag_length(ptr noundef %8) #3
  %39 = call i32 @test_int_eq(ptr noundef nonnull @.str.3, i32 noundef 57, ptr noundef nonnull @.str.14, ptr noundef nonnull @.str.15, i32 noundef %38, i32 noundef 16) #3
  %.not22 = icmp eq i32 %39, 0
  br i1 %.not22, label %55, label %40

40:                                               ; preds = %37
  %41 = call i32 @EVP_CIPHER_CTX_ctrl(ptr noundef %8, i32 noundef 16, i32 noundef 16, ptr noundef nonnull %3) #3
  %42 = icmp sgt i32 %41, 0
  %43 = zext i1 %42 to i32
  %44 = call i32 @test_true(ptr noundef nonnull @.str.3, i32 noundef 59, ptr noundef nonnull @.str.16, i32 noundef %43) #3
  %.not23 = icmp eq i32 %44, 0
  br i1 %.not23, label %55, label %45

45:                                               ; preds = %40
  br i1 %.not17, label %50, label %46

46:                                               ; preds = %45
  %47 = call i32 @EVP_CIPHER_CTX_get_original_iv(ptr noundef %8, ptr noundef nonnull %0, i64 noundef 12) #3
  %48 = icmp ne i32 %47, 0
  %49 = zext i1 %48 to i32
  br label %50

50:                                               ; preds = %46, %45
  %51 = phi i32 [ 1, %45 ], [ %49, %46 ]
  %52 = call i32 @test_true(ptr noundef nonnull @.str.3, i32 noundef 61, ptr noundef nonnull @.str.17, i32 noundef %51) #3
  %53 = icmp ne i32 %52, 0
  %54 = zext i1 %53 to i32
  br label %55

55:                                               ; preds = %50, %40, %37, %32, %27, %22, %16, %10, %5
  %56 = phi i32 [ 0, %40 ], [ 0, %37 ], [ 0, %32 ], [ 0, %27 ], [ 0, %22 ], [ 0, %16 ], [ 0, %10 ], [ 0, %5 ], [ %54, %50 ]
  call void @EVP_CIPHER_CTX_free(ptr noundef %8) #3
  call void @llvm.lifetime.end.p0(i64 64, ptr nonnull %7) #3
  call void @llvm.lifetime.end.p0(i64 4, ptr nonnull %6) #3
  ret i32 %56
}